target datalayout = "e-m:e-p270:32:32-p271:32:32-p272:64:64-i64:64-i128:128-f80:128-n8:16:32:64-S128"
target triple = "x86_64-pc-linux-gnu"

%struct._lv_obj_t = type { ptr, ptr, ptr, ptr, ptr, %struct.lv_area_t, i32, i16, i16 }
%struct.lv_area_t = type { i32, i32, i32, i32 }
%struct._lv_obj_style_t = type { ptr, i32 }
%struct._lv_anim_t = type { ptr, ptr, ptr, ptr, ptr, ptr, ptr, ptr, ptr, i32, i32, i32, i32, i32, i32, i32, i32, i32, %union._lv_anim_path_para_t, i32, i32, i32, i8 }
%union._lv_anim_path_para_t = type { %struct.lv_anim_bezier3_para_t }
%struct.lv_anim_bezier3_para_t = type { i16, i16, i16, i16 }

; Function Attrs: nounwind uwtable
define internal void @full_cache_refresh(ptr noundef %0, i32 noundef %1) #0 {
  %3 = alloca ptr, align 8
  %4 = alloca i32, align 4
  store ptr %0, ptr %3, align 8, !tbaa !30
  store i32 %1, ptr %4, align 4, !tbaa !32
  ret void
}

; Function Attrs: inlinehint nounwind uwtable
define internal i32 @lv_obj_style_get_selector_part(i32 noundef %0) #3 {
  %2 = alloca i32, align 4
  store i32 %0, ptr %2, align 4, !tbaa !32
  %3 = load i32, ptr %2, align 4, !tbaa !32
  %4 = and i32 %3, 16711680
  ret i32 %4
}

; Function Attrs: nounwind uwtable
define zeroext i1 @lv_obj_remove_local_style_prop(ptr noundef %0, i8 noundef zeroext %1, i32 noundef %2) #0 {
  %4 = alloca i1, align 1
  %5 = alloca ptr, align 8
  %6 = alloca i8, align 1
  %7 = alloca i32, align 4
  %8 = alloca i32, align 4
  %9 = alloca i32, align 4
  %10 = alloca i32, align 4
  store ptr %0, ptr %5, align 8, !tbaa !30
  store i8 %1, ptr %6, align 1, !tbaa !43
  store i32 %2, ptr %7, align 4, !tbaa !32
  br label %11

11:                                               ; preds = %3
  %12 = load ptr, ptr %5, align 8, !tbaa !30
  %13 = icmp ne ptr %12, null
  br i1 %13, label %18, label %14

14:                                               ; preds = %11
  br label %15

15:                                               ; preds = %14
  br label %16

16:                                               ; preds = %15
  br label %17

17:                                               ; preds = %16, %17
  br label %17

18:                                               ; preds = %11
  br label %19

19:                                               ; preds = %18
  call void @llvm.lifetime.start.p0(i64 4, ptr %8) #6
  store i32 0, ptr %8, align 4, !tbaa !32
  br label %20

20:                                               ; preds = %55, %19
  %21 = load i32, ptr %8, align 4, !tbaa !32
  %22 = load ptr, ptr %5, align 8, !tbaa !30
  %23 = getelementptr inbounds nuw %struct._lv_obj_t, ptr %22, i32 0, i32 8
  %24 = load i16, ptr %23, align 2
  %25 = lshr i16 %24, 4
  %26 = and i16 %25, 63
  %27 = zext i16 %26 to i32
  %28 = icmp ult i32 %21, %27
  br i1 %28, label %29, label %58

29:                                               ; preds = %20
  %30 = load ptr, ptr %5, align 8, !tbaa !30
  %31 = getelementptr inbounds nuw %struct._lv_obj_t, ptr %30, i32 0, i32 3
  %32 = load ptr, ptr %31, align 8, !tbaa !33
  %33 = load i32, ptr %8, align 4, !tbaa !32
  %34 = zext i32 %33 to i64
  %35 = getelementptr inbounds nuw %struct._lv_obj_style_t, ptr %32, i64 %34
  %36 = getelementptr inbounds nuw %struct._lv_obj_style_t, ptr %35, i32 0, i32 1
  %37 = load i32, ptr %36, align 8
  %38 = lshr i32 %37, 24
  %39 = and i32 %38, 1
  %40 = icmp ne i32 %39, 0
  br i1 %40, label %41, label %54

41:                                               ; preds = %29
  %42 = load ptr, ptr %5, align 8, !tbaa !30
  %43 = getelementptr inbounds nuw %struct._lv_obj_t, ptr %42, i32 0, i32 3
  %44 = load ptr, ptr %43, align 8, !tbaa !33
  %45 = load i32, ptr %8, align 4, !tbaa !32
  %46 = zext i32 %45 to i64
  %47 = getelementptr inbounds nuw %struct._lv_obj_style_t, ptr %44, i64 %46
  %48 = getelementptr inbounds nuw %struct._lv_obj_style_t, ptr %47, i32 0, i32 1
  %49 = load i32, ptr %48, align 8
  %50 = and i32 %49, 16777215
  %51 = load i32, ptr %7, align 4, !tbaa !32
  %52 = icmp eq i32 %50, %51
  br i1 %52, label %53, label %54

53:                                               ; preds = %41
  br label %58

54:                                               ; preds = %41, %29
  br label %55

55:                                               ; preds = %54
  %56 = load i32, ptr %8, align 4, !tbaa !32
  %57 = add i32 %56, 1
  store i32 %57, ptr %8, align 4, !tbaa !32
  br label %20, !llvm.loop !105

58:                                               ; preds = %53, %20
  %59 = load i32, ptr %8, align 4, !tbaa !32
  %60 = load ptr, ptr %5, align 8, !tbaa !30
  %61 = getelementptr inbounds nuw %struct._lv_obj_t, ptr %60, i32 0, i32 8
  %62 = load i16, ptr %61, align 2
  %63 = lshr i16 %62, 4
  %64 = and i16 %63, 63
  %65 = zext i16 %64 to i32
  %66 = icmp eq i32 %59, %65
  br i1 %66, label %67, label %68

67:                                               ; preds = %58
  store i1 false, ptr %4, align 1
  store i32 1, ptr %9, align 4
  br label %92

68:                                               ; preds = %58
  call void @llvm.lifetime.start.p0(i64 4, ptr %10) #6
  %69 = load ptr, ptr %5, align 8, !tbaa !30
  %70 = getelementptr inbounds nuw %struct._lv_obj_t, ptr %69, i32 0, i32 3
  %71 = load ptr, ptr %70, align 8, !tbaa !33
  %72 = load i32, ptr %8, align 4, !tbaa !32
  %73 = zext i32 %72 to i64
  %74 = getelementptr inbounds nuw %struct._lv_obj_style_t, ptr %71, i64 %73
  %75 = getelementptr inbounds nuw %struct._lv_obj_style_t, ptr %74, i32 0, i32 0
  %76 = load ptr, ptr %75, align 8, !tbaa !45
  %77 = load i8, ptr %6, align 1, !tbaa !43
  %78 = call zeroext i1 @lv_style_remove_prop(ptr noundef %76, i8 noundef zeroext %77)
  %79 = zext i1 %78 to i32
  store i32 %79, ptr %10, align 4, !tbaa !32
  %80 = load i32, ptr %10, align 4, !tbaa !32
  %81 = icmp eq i32 %80, 1
  br i1 %81, label %82, label %89

82:                                               ; preds = %68
  %83 = load ptr, ptr %5, align 8, !tbaa !30
  %84 = load i32, ptr %7, align 4, !tbaa !32
  %85 = call i32 @lv_obj_style_get_selector_part(i32 noundef %84)
  call void @full_cache_refresh(ptr noundef %83, i32 noundef %85)
  %86 = load ptr, ptr %5, align 8, !tbaa !30
  %87 = load i32, ptr %7, align 4, !tbaa !32
  %88 = load i8, ptr %6, align 1, !tbaa !43
  call void @lv_obj_refresh_style(ptr noundef %86, i32 noundef %87, i8 noundef zeroext %88)
  br label %89

89:                                               ; preds = %82, %68
  %90 = load i32, ptr %10, align 4, !tbaa !32
  %91 = icmp ne i32 %90, 0
  store i1 %91, ptr %4, align 1
  store i32 1, ptr %9, align 4
  call void @llvm.lifetime.end.p0(i64 4, ptr %10) #6
  br label %92

92:                                               ; preds = %89, %67
  call void @llvm.lifetime.end.p0(i64 4, ptr %8) #6
  %93 = load i1, ptr %4, align 1
  ret i1 %93
}

; Function Attrs: nounwind uwtable
define internal void @fade_in_anim_completed(ptr noundef %0) #0 {
  %2 = alloca ptr, align 8
  store ptr %0, ptr %2, align 8, !tbaa !120
  %3 = load ptr, ptr %2, align 8, !tbaa !120
  %4 = getelementptr inbounds nuw %struct._lv_anim_t, ptr %3, i32 0, i32 0
  %5 = load ptr, ptr %4, align 8, !tbaa !122
  %6 = call zeroext i1 @lv_obj_remove_local_style_prop(ptr noundef %5, i8 noundef zeroext 95, i32 noundef 0)
  ret void
}