; Function Attrs: nounwind uwtable
define internal void @fade_in_anim_completed(ptr noundef readonly captures(none) %0) #0 {
  %2 = load ptr, ptr %0, align 8, !tbaa !107
  %.not.i = icmp eq ptr %2, null
  br i1 %.not.i, label %.preheader.i, label %.preheader25.i

.preheader25.i:                                   ; preds = %1
  %3 = getelementptr inbounds nuw i8, ptr %2, i64 62
  %4 = load i16, ptr %3, align 2
  %5 = lshr i16 %4, 4
  %6 = and i16 %5, 63
  %7 = zext nneg i16 %6 to i32
  %.not31.i = icmp eq i16 %6, 0
  br i1 %.not31.i, label %._crit_edge.i, label %.lr.ph.i

.lr.ph.i:                                         ; preds = %.preheader25.i
  %8 = getelementptr inbounds nuw i8, ptr %2, i64 24
  %9 = load ptr, ptr %8, align 8, !tbaa !38
  %wide.trip.count.i = zext nneg i16 %6 to i64
  br label %10

.preheader.i:                                     ; preds = %1, %.preheader.i
  br label %.preheader.i

10:                                               ; preds = %14, %.lr.ph.i
  %indvars.iv.i = phi i64 [ 0, %.lr.ph.i ], [ %indvars.iv.next.i, %14 ]
  %11 = getelementptr inbounds nuw %struct._lv_obj_style_t, ptr %9, i64 %indvars.iv.i, i32 1
  %12 = load i32, ptr %11, align 8
  %13 = and i32 %12, 33554431
  %or.cond.i = icmp eq i32 %13, 16777216
  br i1 %or.cond.i, label %._crit_edge.loopexit.i, label %14

14:                                               ; preds = %10
  %indvars.iv.next.i = add nuw nsw i64 %indvars.iv.i, 1
  %exitcond.not.i = icmp eq i64 %indvars.iv.next.i, %wide.trip.count.i
  br i1 %exitcond.not.i, label %lv_obj_remove_local_style_prop.exit, label %10, !llvm.loop !96

._crit_edge.loopexit.i:                           ; preds = %10
  %15 = trunc nuw nsw i64 %indvars.iv.i to i32
  br label %._crit_edge.i

._crit_edge.i:                                    ; preds = %._crit_edge.loopexit.i, %.preheader25.i
  %.021.lcssa.i = phi i32 [ 0, %.preheader25.i ], [ %15, %._crit_edge.loopexit.i ]
  %16 = icmp eq i32 %.021.lcssa.i, %7
  br i1 %16, label %lv_obj_remove_local_style_prop.exit, label %17

17:                                               ; preds = %._crit_edge.i
  %18 = getelementptr inbounds nuw i8, ptr %2, i64 24
  %19 = load ptr, ptr %18, align 8, !tbaa !38
  %20 = zext nneg i32 %.021.lcssa.i to i64
  %21 = getelementptr inbounds nuw %struct._lv_obj_style_t, ptr %19, i64 %20
  %22 = load ptr, ptr %21, align 8, !tbaa !49
  %23 = tail call zeroext i1 @lv_style_remove_prop(ptr noundef %22, i8 noundef zeroext 95) #9
  br i1 %23, label %24, label %lv_obj_remove_local_style_prop.exit

24:                                               ; preds = %17
  tail call void @lv_obj_refresh_style(ptr noundef nonnull %2, i32 noundef 0, i8 noundef zeroext 95)
  br label %lv_obj_remove_local_style_prop.exit

lv_obj_remove_local_style_prop.exit:              ; preds = %14, %._crit_edge.i, %17, %24
  ret void
}